(dp1
S'blue'
p2
(lp3
(lp4
I88
aI67
aI0
aa(lp5
I109
aI202
aI255
aasS'ball'
p6
(lp7
(lp8
I149
aI178
aI185
aa(lp9
I0
aI255
aI255
aasS'yellow'
p10
(lp11
(lp12
I179
aI128
aI164
aa(lp13
I23
aI255
aI255
aasS'dot'
p14
(lp15
(lp16
I28
aI0
aI0
aa(lp17
I109
aI105
aI67
aas.