(dp1
S'blue'
p2
(lp3
(lp4
I73
aI60
aI49
aa(lp5
I107
aI186
aI152
aasS'ball'
p6
(lp7
(lp8
I172
aI114
aI122
aa(lp9
I2
aI255
aI255
aasS'yellow'
p10
(lp11
(lp12
I9
aI138
aI161
aa(lp13
I18
aI255
aI255
aasS'dot'
p14
(lp15
(lp16
I0
aI0
aI0
aa(lp17
I127
aI122
aI73
aas.