(dp1
S'blue'
p2
(lp3
(lp4
I90
aI54
aI60
aa(lp5
I130
aI149
aI110
aasS'ball'
p6
(lp7
(lp8
I172
aI132
aI148
aa(lp9
I0
aI255
aI240
aasS'dot'
p10
(lp11
(lp12
I0
aI0
aI0
aa(lp13
I179
aI105
aI72
aasS'yellow'
p14
(lp15
(lp16
I0
aI147
aI103
aa(lp17
I29
aI255
aI255
aas.