(dp1
S'blue'
p2
(lp3
(lp4
I84
aI55
aI17
aa(lp5
I139
aI122
aI255
aasS'ball'
p6
(lp7
(lp8
I147
aI77
aI227
aa(lp9
I0
aI255
aI255
aasS'yellow2'
p10
(lp11
(lp12
I15
aI58
aI244
aa(lp13
I42
aI255
aI255
aasS'yellow'
p14
(lp15
(lp16
I11
aI82
aI255
aa(lp17
I42
aI255
aI255
aasS'blue2'
p18
(lp19
(lp20
I84
aI80
aI17
aa(lp21
I139
aI122
aI255
aasS'dot'
p22
(lp23
(lp24
I0
aI0
aI0
aa(lp25
I179
aI255
aI130
aas.