(dp1
S'blue'
p2
(lp3
(lp4
I97
aI130
aI0
aa(lp5
I150
aI255
aI215
aasS'ball'
p6
(lp7
(lp8
I149
aI178
aI185
aa(lp9
I0
aI255
aI240
aasS'dot'
p10
(lp11
(lp12
I0
aI0
aI0
aa(lp13
I179
aI95
aI69
aasS'yellow'
p14
(lp15
(lp16
I179
aI49
aI164
aa(lp17
I24
aI255
aI255
aas.