(dp1
S'blue'
p2
(lp3
(lp4
I85
aI71
aI0
aa(lp5
I128
aI255
aI255
aasS'ball'
p6
(lp7
(lp8
I154
aI178
aI185
aa(lp9
I0
aI255
aI255
aasS'yellow2'
p10
(lp11
(lp12
I179
aI120
aI160
aa(lp13
I32
aI255
aI255
aasS'yellow'
p14
(lp15
(lp16
I14
aI96
aI176
aa(lp17
I37
aI248
aI255
aasS'blue2'
p18
(lp19
(lp20
I87
aI109
aI93
aa(lp21
I125
aI255
aI255
aasS'dot'
p22
(lp23
(lp24
I0
aI0
aI0
aa(lp25
I179
aI255
aI119
aas.