(dp1
S'blue'
p2
(lp3
(lp4
I93
aI76
aI105
aa(lp5
I128
aI255
aI255
aasS'ball'
p6
(lp7
(lp8
I154
aI178
aI100
aa(lp9
I0
aI255
aI255
aasS'yellow2'
p10
(lp11
(lp12
I7
aI62
aI129
aa(lp13
I32
aI255
aI255
aasS'yellow'
p14
(lp15
(lp16
I14
aI129
aI127
aa(lp17
I37
aI248
aI255
aasS'blue2'
p18
(lp19
(lp20
I93
aI102
aI70
aa(lp21
I116
aI255
aI255
aasS'dot'
p22
(lp23
(lp24
I106
aI10
aI0
aa(lp25
I101
aI255
aI70
aas.