(dp1
S'blue'
p2
(lp3
(lp4
I90
aI140
aI0
aa(lp5
I115
aI255
aI255
aasS'ball'
p6
(lp7
(lp8
I149
aI132
aI122
aa(lp9
I0
aI255
aI240
aasS'dot'
p10
(lp11
(lp12
I0
aI0
aI0
aa(lp13
I179
aI210
aI73
aasS'yellow'
p14
(lp15
(lp16
I15
aI164
aI0
aa(lp17
I33
aI255
aI255
aas.