(dp1
S'blue'
p2
(lp3
(lp4
I97
aI130
aI0
aa(lp5
I150
aI255
aI215
aasS'ball'
p6
(lp7
(lp8
I149
aI64
aI150
aa(lp9
I5
aI255
aI240
aasS'yellow'
p10
(lp11
(lp12
I109
aI98
aI117
aa(lp13
I39
aI255
aI200
aasS'dot'
p14
(lp15
(lp16
I0
aI0
aI0
aa(lp17
I179
aI95
aI69
aas.