(dp1
S'blue'
p2
(lp3
(lp4
I78
aI133
aI0
aa(lp5
I121
aI255
aI255
aasS'ball'
p6
(lp7
(lp8
I172
aI132
aI195
aa(lp9
I0
aI255
aI240
aasS'yellow'
p10
(lp11
(lp12
I15
aI209
aI0
aa(lp13
I34
aI255
aI255
aasS'dot'
p14
(lp15
(lp16
I0
aI0
aI0
aa(lp17
I179
aI210
aI73
aas.