((lp1
<<<<<<< HEAD
I65
aI98
aI598
aI343
a(lp2
(I50
I0
tp3
a(I544
I0
tp4
a(I579
I74
tp5
a(I579
I247
tp6
a(I541
I319
tp7
a(I39
I319
tp8
a(I0
I247
tp9
a(I0
I81
=======
I73
aI67
aI592
aI337
a(lp2
(I48
I0
tp3
a(I535
I0
tp4
a(I579
I75
tp5
a(I579
I248
tp6
a(I546
I319
tp7
a(I38
I319
tp8
a(I0
I241
tp9
a(I0
I85
>>>>>>> f28274339150a812a2711055afe78aaa36bef31b
tp10
atp11
.