(dp1
S'blue'
p2
(lp3
(lp4
I90
aI94
aI52
aa(lp5
I109
aI168
aI132
aasS'ball'
p6
(lp7
(lp8
I157
aI159
aI163
aa(lp9
I0
aI255
aI255
aasS'yellow'
p10
(lp11
(lp12
I179
aI235
aI164
aa(lp13
I24
aI255
aI255
aas.